target datalayout = "e-m:e-p270:32:32-p271:32:32-p272:64:64-i64:64-i128:128-f80:128-n8:16:32:64-S128"
target triple = "x86_64-unknown-linux-gnu"

%struct.ssl_st = type { i32, i16, i16, ptr, ptr, ptr, ptr, ptr, i32, i32, ptr, ptr, i32, i32, ptr, ptr, ptr, ptr, ptr, ptr, ptr, ptr, i32, i32, [32 x i8], ptr, ptr, ptr, ptr, ptr, ptr, ptr, i64, %struct.crypto_ex_data_st, ptr, i32, i32, i32, i32, i16, ptr, i32, i64, ptr, ptr, ptr, ptr, ptr, ptr, i32, i32, ptr, ptr, i8, i8, i32 }
%struct.crypto_ex_data_st = type { ptr }
%struct.ssl_cipher_preference_list_st = type { ptr, ptr }
%struct.ssl_cipher_st = type { ptr, i32, i32, i32, i32, i32, i32 }

; Function Attrs: nounwind uwtable
define hidden ptr @ssl3_choose_cipher(ptr noundef %ssl, ptr noundef %clnt, ptr noundef %server_pref) #0 {
entry:
  %ssl.addr = alloca ptr, align 8
  %clnt.addr = alloca ptr, align 8
  %server_pref.addr = alloca ptr, align 8
  %c = alloca ptr, align 8
  %ret = alloca ptr, align 8
  %srvr = alloca ptr, align 8
  %prio = alloca ptr, align 8
  %allow = alloca ptr, align 8
  %i = alloca i64, align 8
  %ok = alloca i32, align 4
  %cipher_index = alloca i64, align 8
  %alg_k = alloca i32, align 4
  %alg_a = alloca i32, align 4
  %mask_k = alloca i32, align 4
  %mask_a = alloca i32, align 4
  %in_group_flags = alloca ptr, align 8
  %group_min = alloca i32, align 4
  store ptr %ssl, ptr %ssl.addr, align 8
  store ptr %clnt, ptr %clnt.addr, align 8
  store ptr %server_pref, ptr %server_pref.addr, align 8
  store ptr null, ptr %ret, align 8
  %0 = load ptr, ptr %server_pref.addr, align 8
  %ciphers = getelementptr inbounds %struct.ssl_cipher_preference_list_st, ptr %0, i32 0, i32 0
  %1 = load ptr, ptr %ciphers, align 8
  store ptr %1, ptr %srvr, align 8
  store i32 -1, ptr %group_min, align 4
  %2 = load ptr, ptr %ssl.addr, align 8
  %options = getelementptr inbounds %struct.ssl_st, ptr %2, i32 0, i32 35
  %3 = load i32, ptr %options, align 8
  %conv = zext i32 %3 to i64
  %and = and i64 %conv, 4194304
  %tobool = icmp ne i64 %and, 0
  br i1 %tobool, label %if.then, label %if.else

if.then:                                          ; preds = %entry
  %4 = load ptr, ptr %srvr, align 8
  store ptr %4, ptr %prio, align 8
  %5 = load ptr, ptr %server_pref.addr, align 8
  %in_group_flags1 = getelementptr inbounds %struct.ssl_cipher_preference_list_st, ptr %5, i32 0, i32 1
  %6 = load ptr, ptr %in_group_flags1, align 8
  store ptr %6, ptr %in_group_flags, align 8
  %7 = load ptr, ptr %clnt.addr, align 8
  store ptr %7, ptr %allow, align 8
  br label %if.end

if.else:                                          ; preds = %entry
  %8 = load ptr, ptr %clnt.addr, align 8
  store ptr %8, ptr %prio, align 8
  store ptr null, ptr %in_group_flags, align 8
  %9 = load ptr, ptr %srvr, align 8
  store ptr %9, ptr %allow, align 8
  br label %if.end

if.end:                                           ; preds = %if.else, %if.then
  %10 = load ptr, ptr %ssl.addr, align 8
  call void @ssl_get_compatible_server_ciphers(ptr noundef %10, ptr noundef %mask_k, ptr noundef %mask_a)
  store i64 0, ptr %i, align 8
  br label %for.cond

for.cond:                                         ; preds = %for.inc, %if.end
  %11 = load i64, ptr %i, align 8
  %12 = load ptr, ptr %prio, align 8
  %call = call i64 @sk_num(ptr noundef %12)
  %cmp = icmp ult i64 %11, %call
  br i1 %cmp, label %for.body, label %for.end

for.body:                                         ; preds = %for.cond
  %13 = load ptr, ptr %prio, align 8
  %14 = load i64, ptr %i, align 8
  %call3 = call ptr @sk_value(ptr noundef %13, i64 noundef %14)
  store ptr %call3, ptr %c, align 8
  store i32 1, ptr %ok, align 4
  %15 = load ptr, ptr %c, align 8
  %call4 = call zeroext i16 @SSL_CIPHER_get_min_version(ptr noundef %15)
  %conv5 = zext i16 %call4 to i32
  %16 = load ptr, ptr %ssl.addr, align 8
  %call6 = call zeroext i16 @ssl3_protocol_version(ptr noundef %16)
  %conv7 = zext i16 %call6 to i32
  %cmp8 = icmp sgt i32 %conv5, %conv7
  br i1 %cmp8, label %if.then10, label %if.end11

if.then10:                                        ; preds = %for.body
  store i32 0, ptr %ok, align 4
  br label %if.end11

if.end11:                                         ; preds = %if.then10, %for.body
  %17 = load ptr, ptr %c, align 8
  %algorithm_mkey = getelementptr inbounds %struct.ssl_cipher_st, ptr %17, i32 0, i32 2
  %18 = load i32, ptr %algorithm_mkey, align 4
  store i32 %18, ptr %alg_k, align 4
  %19 = load ptr, ptr %c, align 8
  %algorithm_auth = getelementptr inbounds %struct.ssl_cipher_st, ptr %19, i32 0, i32 3
  %20 = load i32, ptr %algorithm_auth, align 8
  store i32 %20, ptr %alg_a, align 4
  %21 = load i32, ptr %ok, align 4
  %tobool12 = icmp ne i32 %21, 0
  br i1 %tobool12, label %land.lhs.true, label %land.end

land.lhs.true:                                    ; preds = %if.end11
  %22 = load i32, ptr %alg_k, align 4
  %23 = load i32, ptr %mask_k, align 4
  %and13 = and i32 %22, %23
  %tobool14 = icmp ne i32 %and13, 0
  br i1 %tobool14, label %land.rhs, label %land.end

land.rhs:                                         ; preds = %land.lhs.true
  %24 = load i32, ptr %alg_a, align 4
  %25 = load i32, ptr %mask_a, align 4
  %and15 = and i32 %24, %25
  %tobool16 = icmp ne i32 %and15, 0
  br label %land.end

land.end:                                         ; preds = %land.rhs, %land.lhs.true, %if.end11
  %26 = phi i1 [ false, %land.lhs.true ], [ false, %if.end11 ], [ %tobool16, %land.rhs ]
  %land.ext = zext i1 %26 to i32
  store i32 %land.ext, ptr %ok, align 4
  %27 = load i32, ptr %ok, align 4
  %tobool17 = icmp ne i32 %27, 0
  br i1 %tobool17, label %land.lhs.true18, label %if.end49

land.lhs.true18:                                  ; preds = %land.end
  %28 = load ptr, ptr %allow, align 8
  %29 = load ptr, ptr %c, align 8
  %call19 = call i32 @sk_find(ptr noundef %28, ptr noundef %cipher_index, ptr noundef %29)
  %tobool20 = icmp ne i32 %call19, 0
  br i1 %tobool20, label %if.then21, label %if.end49

if.then21:                                        ; preds = %land.lhs.true18
  %30 = load ptr, ptr %in_group_flags, align 8
  %cmp22 = icmp ne ptr %30, null
  br i1 %cmp22, label %land.lhs.true24, label %if.else37

land.lhs.true24:                                  ; preds = %if.then21
  %31 = load ptr, ptr %in_group_flags, align 8
  %32 = load i64, ptr %i, align 8
  %arrayidx = getelementptr inbounds i8, ptr %31, i64 %32
  %33 = load i8, ptr %arrayidx, align 1
  %conv25 = zext i8 %33 to i32
  %cmp26 = icmp eq i32 %conv25, 1
  br i1 %cmp26, label %if.then28, label %if.else37

if.then28:                                        ; preds = %land.lhs.true24
  %34 = load i32, ptr %group_min, align 4
  %cmp29 = icmp eq i32 %34, -1
  br i1 %cmp29, label %if.then34, label %lor.lhs.false

lor.lhs.false:                                    ; preds = %if.then28
  %35 = load i32, ptr %group_min, align 4
  %conv31 = sext i32 %35 to i64
  %36 = load i64, ptr %cipher_index, align 8
  %cmp32 = icmp ugt i64 %conv31, %36
  br i1 %cmp32, label %if.then34, label %if.end36

if.then34:                                        ; preds = %lor.lhs.false, %if.then28
  %37 = load i64, ptr %cipher_index, align 8
  %conv35 = trunc i64 %37 to i32
  store i32 %conv35, ptr %group_min, align 4
  br label %if.end36

if.end36:                                         ; preds = %if.then34, %lor.lhs.false
  br label %if.end48

if.else37:                                        ; preds = %land.lhs.true24, %if.then21
  %38 = load i32, ptr %group_min, align 4
  %cmp38 = icmp ne i32 %38, -1
  br i1 %cmp38, label %land.lhs.true40, label %if.end46

land.lhs.true40:                                  ; preds = %if.else37
  %39 = load i32, ptr %group_min, align 4
  %conv41 = sext i32 %39 to i64
  %40 = load i64, ptr %cipher_index, align 8
  %cmp42 = icmp ult i64 %conv41, %40
  br i1 %cmp42, label %if.then44, label %if.end46

if.then44:                                        ; preds = %land.lhs.true40
  %41 = load i32, ptr %group_min, align 4
  %conv45 = sext i32 %41 to i64
  store i64 %conv45, ptr %cipher_index, align 8
  br label %if.end46

if.end46:                                         ; preds = %if.then44, %land.lhs.true40, %if.else37
  %42 = load ptr, ptr %allow, align 8
  %43 = load i64, ptr %cipher_index, align 8
  %call47 = call ptr @sk_value(ptr noundef %42, i64 noundef %43)
  store ptr %call47, ptr %ret, align 8
  br label %for.end

if.end48:                                         ; preds = %if.end36
  br label %if.end49

if.end49:                                         ; preds = %if.end48, %land.lhs.true18, %land.end
  %44 = load ptr, ptr %in_group_flags, align 8
  %cmp50 = icmp ne ptr %44, null
  br i1 %cmp50, label %land.lhs.true52, label %if.end63

land.lhs.true52:                                  ; preds = %if.end49
  %45 = load ptr, ptr %in_group_flags, align 8
  %46 = load i64, ptr %i, align 8
  %arrayidx53 = getelementptr inbounds i8, ptr %45, i64 %46
  %47 = load i8, ptr %arrayidx53, align 1
  %conv54 = zext i8 %47 to i32
  %cmp55 = icmp eq i32 %conv54, 0
  br i1 %cmp55, label %land.lhs.true57, label %if.end63

land.lhs.true57:                                  ; preds = %land.lhs.true52
  %48 = load i32, ptr %group_min, align 4
  %cmp58 = icmp ne i32 %48, -1
  br i1 %cmp58, label %if.then60, label %if.end63

if.then60:                                        ; preds = %land.lhs.true57
  %49 = load ptr, ptr %allow, align 8
  %50 = load i32, ptr %group_min, align 4
  %conv61 = sext i32 %50 to i64
  %call62 = call ptr @sk_value(ptr noundef %49, i64 noundef %conv61)
  store ptr %call62, ptr %ret, align 8
  br label %for.end

if.end63:                                         ; preds = %land.lhs.true57, %land.lhs.true52, %if.end49
  br label %for.inc

for.inc:                                          ; preds = %if.end63
  %51 = load i64, ptr %i, align 8
  %inc = add i64 %51, 1
  store i64 %inc, ptr %i, align 8
  br label %for.cond, !llvm.loop !7

for.end:                                          ; preds = %if.then60, %if.end46, %for.cond
  %52 = load ptr, ptr %ret, align 8
  ret ptr %52
}