; Function Attrs: nounwind uwtable
define hidden ptr @ssl3_choose_cipher(ptr noundef %ssl, ptr noundef %clnt, ptr noundef readonly captures(none) %server_pref) local_unnamed_addr #1 {
entry:
  %cipher_index = alloca i64, align 8
  %mask_k = alloca i32, align 4
  %mask_a = alloca i32, align 4
  %0 = load ptr, ptr %server_pref, align 8
  %options = getelementptr inbounds nuw i8, ptr %ssl, i64 264
  %1 = load i32, ptr %options, align 8
  %2 = and i32 %1, 4194304
  %tobool.not = icmp eq i32 %2, 0
  br i1 %tobool.not, label %if.end, label %if.then

if.then:                                          ; preds = %entry
  %in_group_flags1 = getelementptr inbounds nuw i8, ptr %server_pref, i64 8
  %3 = load ptr, ptr %in_group_flags1, align 8
  %4 = freeze ptr %3
  br label %if.end

if.end:                                           ; preds = %entry, %if.then
  %allow.0 = phi ptr [ %clnt, %if.then ], [ %0, %entry ]
  %prio.0 = phi ptr [ %0, %if.then ], [ %clnt, %entry ]
  %in_group_flags.0 = phi ptr [ %4, %if.then ], [ null, %entry ]
  call void @ssl_get_compatible_server_ciphers(ptr noundef nonnull %ssl, ptr noundef nonnull %mask_k, ptr noundef nonnull %mask_a) #14
  %call32 = call i64 @sk_num(ptr noundef %prio.0) #14
  %cmp33.not = icmp eq i64 %call32, 0
  br i1 %cmp33.not, label %for.end, label %for.body.lr.ph

for.body.lr.ph:                                   ; preds = %if.end
  %cmp22.not = icmp eq ptr %in_group_flags.0, null
  br i1 %cmp22.not, label %for.body.us.us, label %for.body

for.body.us.us:                                   ; preds = %for.body.lr.ph, %if.end49.us.us
  %i.034.us.us = phi i64 [ %inc.us.us, %if.end49.us.us ], [ 0, %for.body.lr.ph ]
  %call3.us.us = call ptr @sk_value(ptr noundef %prio.0, i64 noundef %i.034.us.us) #14
  %call4.us.us = call zeroext i16 @SSL_CIPHER_get_min_version(ptr noundef %call3.us.us) #14
  %call6.us.us = call zeroext i16 @ssl3_protocol_version(ptr noundef nonnull %ssl) #14
  %cmp8.us.us = icmp ugt i16 %call4.us.us, %call6.us.us
  %algorithm_auth.us.us = getelementptr inbounds nuw i8, ptr %call3.us.us, i64 16
  %5 = load i32, ptr %algorithm_auth.us.us, align 8
  br i1 %cmp8.us.us, label %if.end49.us.us, label %land.lhs.true.us.us

land.lhs.true.us.us:                              ; preds = %for.body.us.us
  %algorithm_mkey.us.us = getelementptr inbounds nuw i8, ptr %call3.us.us, i64 12
  %6 = load i32, ptr %algorithm_mkey.us.us, align 4
  %7 = load i32, ptr %mask_k, align 4
  %and13.us.us = and i32 %7, %6
  %tobool14.not.us.us = icmp eq i32 %and13.us.us, 0
  br i1 %tobool14.not.us.us, label %if.end49.us.us, label %land.rhs.us.us

land.rhs.us.us:                                   ; preds = %land.lhs.true.us.us
  %8 = load i32, ptr %mask_a, align 4
  %and15.us.us = and i32 %8, %5
  %tobool16.not.us.us = icmp eq i32 %and15.us.us, 0
  br i1 %tobool16.not.us.us, label %if.end49.us.us, label %land.lhs.true18.us.us

land.lhs.true18.us.us:                            ; preds = %land.rhs.us.us
  %call19.us.us = call i32 @sk_find(ptr noundef %allow.0, ptr noundef nonnull %cipher_index, ptr noundef nonnull %call3.us.us) #14
  %tobool20.not.us.us = icmp eq i32 %call19.us.us, 0
  br i1 %tobool20.not.us.us, label %if.end49.us.us, label %if.else37.thread

if.else37.thread:                                 ; preds = %land.lhs.true18.us.us
  %.pre9093 = load i64, ptr %cipher_index, align 8
  br label %for.end.sink.split

if.end49.us.us:                                   ; preds = %land.lhs.true18.us.us, %land.rhs.us.us, %land.lhs.true.us.us, %for.body.us.us
  %inc.us.us = add nuw i64 %i.034.us.us, 1
  %call.us.us = call i64 @sk_num(ptr noundef %prio.0) #14
  %cmp.us.us = icmp ult i64 %inc.us.us, %call.us.us
  br i1 %cmp.us.us, label %for.body.us.us, label %for.end, !llvm.loop !7

for.body:                                         ; preds = %for.body.lr.ph, %for.inc
  %group_min.037 = phi i32 [ %group_min.128, %for.inc ], [ -1, %for.body.lr.ph ]
  %i.034 = phi i64 [ %inc, %for.inc ], [ 0, %for.body.lr.ph ]
  %call3 = call ptr @sk_value(ptr noundef %prio.0, i64 noundef %i.034) #14
  %call4 = call zeroext i16 @SSL_CIPHER_get_min_version(ptr noundef %call3) #14
  %call6 = call zeroext i16 @ssl3_protocol_version(ptr noundef nonnull %ssl) #14
  %cmp8 = icmp ugt i16 %call4, %call6
  %algorithm_auth = getelementptr inbounds nuw i8, ptr %call3, i64 16
  %9 = load i32, ptr %algorithm_auth, align 8
  br i1 %cmp8, label %land.lhs.true52, label %land.lhs.true

land.lhs.true:                                    ; preds = %for.body
  %algorithm_mkey = getelementptr inbounds nuw i8, ptr %call3, i64 12
  %10 = load i32, ptr %algorithm_mkey, align 4
  %11 = load i32, ptr %mask_k, align 4
  %and13 = and i32 %11, %10
  %tobool14.not = icmp eq i32 %and13, 0
  br i1 %tobool14.not, label %land.lhs.true52, label %land.rhs

land.rhs:                                         ; preds = %land.lhs.true
  %12 = load i32, ptr %mask_a, align 4
  %and15 = and i32 %12, %9
  %tobool16.not = icmp eq i32 %and15, 0
  br i1 %tobool16.not, label %land.lhs.true52, label %land.lhs.true18

land.lhs.true18:                                  ; preds = %land.rhs
  %call19 = call i32 @sk_find(ptr noundef %allow.0, ptr noundef nonnull %cipher_index, ptr noundef nonnull %call3) #14
  %tobool20.not = icmp eq i32 %call19, 0
  br i1 %tobool20.not, label %land.lhs.true52, label %if.then21

if.then21:                                        ; preds = %land.lhs.true18
  %arrayidx = getelementptr inbounds i8, ptr %in_group_flags.0, i64 %i.034
  %13 = load i8, ptr %arrayidx, align 1
  %cmp26 = icmp eq i8 %13, 1
  %cmp29 = icmp eq i32 %group_min.037, -1
  %.pre = load i64, ptr %cipher_index, align 8
  br i1 %cmp26, label %if.then28, label %if.else37

if.then28:                                        ; preds = %if.then21
  %conv31 = sext i32 %group_min.037 to i64
  %cmp32 = icmp ult i64 %.pre, %conv31
  %or.cond98 = select i1 %cmp29, i1 true, i1 %cmp32
  %conv35 = trunc i64 %.pre to i32
  %spec.select = select i1 %or.cond98, i32 %conv35, i32 %group_min.037
  br label %land.lhs.true52

if.else37:                                        ; preds = %if.then21
  br i1 %cmp29, label %for.end.sink.split, label %land.lhs.true40

land.lhs.true40:                                  ; preds = %if.else37
  %conv41 = sext i32 %group_min.037 to i64
  %cmp42 = icmp ugt i64 %.pre, %conv41
  br i1 %cmp42, label %if.then44, label %for.end.sink.split

if.then44:                                        ; preds = %land.lhs.true40
  store i64 %conv41, ptr %cipher_index, align 8
  br label %for.end.sink.split

land.lhs.true52:                                  ; preds = %if.then28, %land.rhs, %land.lhs.true18, %for.body, %land.lhs.true
  %group_min.128 = phi i32 [ %group_min.037, %land.lhs.true ], [ %group_min.037, %for.body ], [ %group_min.037, %land.lhs.true18 ], [ %group_min.037, %land.rhs ], [ %spec.select, %if.then28 ]
  %arrayidx53 = getelementptr inbounds i8, ptr %in_group_flags.0, i64 %i.034
  %14 = load i8, ptr %arrayidx53, align 1
  %cmp55 = icmp eq i8 %14, 0
  %cmp58 = icmp ne i32 %group_min.128, -1
  %or.cond = select i1 %cmp55, i1 %cmp58, i1 false
  br i1 %or.cond, label %if.then60, label %for.inc

if.then60:                                        ; preds = %land.lhs.true52
  %conv61 = sext i32 %group_min.128 to i64
  br label %for.end.sink.split

for.inc:                                          ; preds = %land.lhs.true52
  %inc = add nuw i64 %i.034, 1
  %call = call i64 @sk_num(ptr noundef %prio.0) #14
  %cmp = icmp ult i64 %inc, %call
  br i1 %cmp, label %for.body, label %for.end, !llvm.loop !7

for.end.sink.split:                               ; preds = %if.else37, %land.lhs.true40, %if.then44, %if.else37.thread, %if.then60
  %conv61.sink = phi i64 [ %conv61, %if.then60 ], [ %conv41, %if.then44 ], [ %.pre, %land.lhs.true40 ], [ %.pre, %if.else37 ], [ %.pre9093, %if.else37.thread ]
  %call62 = call ptr @sk_value(ptr noundef %allow.0, i64 noundef %conv61.sink) #14
  br label %for.end

for.end:                                          ; preds = %for.inc, %if.end49.us.us, %for.end.sink.split, %if.end
  %ret.0 = phi ptr [ null, %if.end ], [ %call62, %for.end.sink.split ], [ null, %if.end49.us.us ], [ null, %for.inc ]
  ret ptr %ret.0
}